target datalayout = "e-m:e-p270:32:32-p271:32:32-p272:64:64-i64:64-i128:128-f80:128-n8:16:32:64-S128"
target triple = "x86_64-pc-linux-gnu"

; Function Attrs: nounwind uwtable
define dso_local i64 @mp_sub_ui(ptr noundef %0, i64 noundef %1, i64 noundef %2) #0 {
  %4 = alloca ptr, align 8
  %5 = alloca i64, align 8
  %6 = alloca i64, align 8
  %7 = alloca i64, align 8
  %8 = alloca i64, align 8
  %9 = alloca i64, align 8
  %10 = alloca i64, align 8
  store ptr %0, ptr %4, align 8, !tbaa !28
  store i64 %1, ptr %5, align 8, !tbaa !27
  store i64 %2, ptr %6, align 8, !tbaa !27
  call void @llvm.lifetime.start.p0(i64 8, ptr %7) #10
  call void @llvm.lifetime.start.p0(i64 8, ptr %8) #10
  call void @llvm.lifetime.start.p0(i64 8, ptr %9) #10
  call void @llvm.lifetime.start.p0(i64 8, ptr %10) #10
  %11 = load i64, ptr %5, align 8, !tbaa !27
  store i64 %11, ptr %8, align 8, !tbaa !27
  store i64 0, ptr %7, align 8, !tbaa !27
  br label %12

12:                                               ; preds = %37, %3
  %13 = load i64, ptr %7, align 8, !tbaa !27
  %14 = load i64, ptr %6, align 8, !tbaa !27
  %15 = icmp slt i64 %13, %14
  br i1 %15, label %16, label %40

16:                                               ; preds = %12
  %17 = load ptr, ptr %4, align 8, !tbaa !28
  %18 = load i64, ptr %7, align 8, !tbaa !27
  %19 = getelementptr inbounds i64, ptr %17, i64 %18
  %20 = load i64, ptr %19, align 8, !tbaa !27
  store i64 %20, ptr %10, align 8, !tbaa !27
  %21 = load i64, ptr %10, align 8, !tbaa !27
  %22 = load i64, ptr %8, align 8, !tbaa !27
  %23 = sub i64 %21, %22
  store i64 %23, ptr %9, align 8, !tbaa !27
  %24 = load i64, ptr %9, align 8, !tbaa !27
  %25 = load i64, ptr %10, align 8, !tbaa !27
  %26 = icmp ugt i64 %24, %25
  %27 = zext i1 %26 to i32
  %28 = sext i32 %27 to i64
  store i64 %28, ptr %8, align 8, !tbaa !27
  %29 = load i64, ptr %9, align 8, !tbaa !27
  %30 = load ptr, ptr %4, align 8, !tbaa !28
  %31 = load i64, ptr %7, align 8, !tbaa !27
  %32 = getelementptr inbounds i64, ptr %30, i64 %31
  store i64 %29, ptr %32, align 8, !tbaa !27
  %33 = load i64, ptr %8, align 8, !tbaa !27
  %34 = icmp eq i64 %33, 0
  br i1 %34, label %35, label %36

35:                                               ; preds = %16
  br label %40

36:                                               ; preds = %16
  br label %37

37:                                               ; preds = %36
  %38 = load i64, ptr %7, align 8, !tbaa !27
  %39 = add i64 %38, 1
  store i64 %39, ptr %7, align 8, !tbaa !27
  br label %12, !llvm.loop !48

40:                                               ; preds = %35, %12
  %41 = load i64, ptr %8, align 8, !tbaa !27
  call void @llvm.lifetime.end.p0(i64 8, ptr %10) #10
  call void @llvm.lifetime.end.p0(i64 8, ptr %9) #10
  call void @llvm.lifetime.end.p0(i64 8, ptr %8) #10
  call void @llvm.lifetime.end.p0(i64 8, ptr %7) #10
  ret i64 %41
}