; Function Attrs: nofree norecurse nosync nounwind memory(argmem: readwrite) uwtable
define dso_local noundef i64 @mp_sub_ui(ptr noundef captures(none) %0, i64 noundef %1, i64 noundef %2) local_unnamed_addr #8 {
  %4 = icmp sgt i64 %2, 0
  br i1 %4, label %.lr.ph, label %._crit_edge

5:                                                ; preds = %.lr.ph
  %6 = add nuw nsw i64 %.018, 1
  %exitcond.not = icmp eq i64 %6, %2
  br i1 %exitcond.not, label %._crit_edge, label %.lr.ph, !llvm.loop !53

.lr.ph:                                           ; preds = %3, %5
  %.018 = phi i64 [ %6, %5 ], [ 0, %3 ]
  %.01417 = phi i64 [ 1, %5 ], [ %1, %3 ]
  %7 = getelementptr inbounds nuw i64, ptr %0, i64 %.018
  %8 = load i64, ptr %7, align 8, !tbaa !33
  %9 = sub i64 %8, %.01417
  %.not = icmp ugt i64 %.01417, %8
  store i64 %9, ptr %7, align 8, !tbaa !33
  br i1 %.not, label %5, label %._crit_edge

._crit_edge:                                      ; preds = %5, %.lr.ph, %3
  %.1 = phi i64 [ %1, %3 ], [ 0, %.lr.ph ], [ 1, %5 ]
  ret i64 %.1
}